target datalayout = "e-m:e-p270:32:32-p271:32:32-p272:64:64-i64:64-i128:128-f80:128-n8:16:32:64-S128"
target triple = "x86_64-pc-linux-gnu"

%struct.SurfaceDataRasInfo = type { %struct.SurfaceDataBounds, ptr, i32, i32, i32, i32, ptr, ptr, ptr, ptr, ptr, ptr, i32, %union.anon.0 }
%struct.SurfaceDataBounds = type { i32, i32, i32, i32 }
%union.anon.0 = type { ptr, [56 x i8] }

; Function Attrs: nounwind uwtable
define hidden void @ByteGrayToIntArgbConvert(ptr noundef %0, ptr noundef %1, i32 noundef %2, i32 noundef %3, ptr noundef %4, ptr noundef %5, ptr noundef %6, ptr noundef %7) #1 {
  %9 = alloca ptr, align 8
  %10 = alloca ptr, align 8
  %11 = alloca i32, align 4
  %12 = alloca i32, align 4
  %13 = alloca ptr, align 8
  %14 = alloca ptr, align 8
  %15 = alloca ptr, align 8
  %16 = alloca ptr, align 8
  %17 = alloca ptr, align 8
  %18 = alloca ptr, align 8
  %19 = alloca i32, align 4
  %20 = alloca i32, align 4
  %21 = alloca i32, align 4
  %22 = alloca i32, align 4
  %23 = alloca i32, align 4
  store ptr %0, ptr %9, align 8
  store ptr %1, ptr %10, align 8
  store i32 %2, ptr %11, align 4
  store i32 %3, ptr %12, align 4
  store ptr %4, ptr %13, align 8
  store ptr %5, ptr %14, align 8
  store ptr %6, ptr %15, align 8
  store ptr %7, ptr %16, align 8
  br label %24

24:                                               ; preds = %8
  %25 = load ptr, ptr %9, align 8
  store ptr %25, ptr %17, align 8
  %26 = load ptr, ptr %10, align 8
  store ptr %26, ptr %18, align 8
  %27 = load ptr, ptr %13, align 8
  %28 = getelementptr inbounds %struct.SurfaceDataRasInfo, ptr %27, i32 0, i32 4
  %29 = load i32, ptr %28, align 8
  store i32 %29, ptr %19, align 4
  %30 = load ptr, ptr %14, align 8
  %31 = getelementptr inbounds %struct.SurfaceDataRasInfo, ptr %30, i32 0, i32 4
  %32 = load i32, ptr %31, align 8
  store i32 %32, ptr %20, align 4
  %33 = load i32, ptr %11, align 4
  %34 = mul i32 %33, 1
  %35 = load i32, ptr %19, align 4
  %36 = sub i32 %35, %34
  store i32 %36, ptr %19, align 4
  %37 = load i32, ptr %11, align 4
  %38 = mul i32 %37, 4
  %39 = load i32, ptr %20, align 4
  %40 = sub i32 %39, %38
  store i32 %40, ptr %20, align 4
  br label %41

41:                                               ; preds = %88, %24
  %42 = load i32, ptr %11, align 4
  store i32 %42, ptr %21, align 4
  br label %43

43:                                               ; preds = %71, %41
  br label %44

44:                                               ; preds = %43
  br label %45

45:                                               ; preds = %44
  %46 = load ptr, ptr %17, align 8
  %47 = getelementptr inbounds i8, ptr %46, i64 0
  %48 = load i8, ptr %47, align 1
  %49 = zext i8 %48 to i32
  store i32 %49, ptr %23, align 4
  %50 = load i32, ptr %23, align 4
  %51 = or i32 65280, %50
  %52 = shl i32 %51, 8
  %53 = load i32, ptr %23, align 4
  %54 = or i32 %52, %53
  %55 = shl i32 %54, 8
  %56 = load i32, ptr %23, align 4
  %57 = or i32 %55, %56
  store i32 %57, ptr %22, align 4
  br label %58

58:                                               ; preds = %45
  %59 = load i32, ptr %22, align 4
  %60 = load ptr, ptr %18, align 8
  %61 = getelementptr inbounds i32, ptr %60, i64 0
  store i32 %59, ptr %61, align 4
  br label %62

62:                                               ; preds = %58
  %63 = load ptr, ptr %17, align 8
  %64 = ptrtoint ptr %63 to i64
  %65 = add nsw i64 %64, 1
  %66 = inttoptr i64 %65 to ptr
  store ptr %66, ptr %17, align 8
  %67 = load ptr, ptr %18, align 8
  %68 = ptrtoint ptr %67 to i64
  %69 = add nsw i64 %68, 4
  %70 = inttoptr i64 %69 to ptr
  store ptr %70, ptr %18, align 8
  br label %71

71:                                               ; preds = %62
  %72 = load i32, ptr %21, align 4
  %73 = add i32 %72, -1
  store i32 %73, ptr %21, align 4
  %74 = icmp ugt i32 %73, 0
  br i1 %74, label %43, label %75, !llvm.loop !6

75:                                               ; preds = %71
  %76 = load ptr, ptr %17, align 8
  %77 = ptrtoint ptr %76 to i64
  %78 = load i32, ptr %19, align 4
  %79 = sext i32 %78 to i64
  %80 = add nsw i64 %77, %79
  %81 = inttoptr i64 %80 to ptr
  store ptr %81, ptr %17, align 8
  %82 = load ptr, ptr %18, align 8
  %83 = ptrtoint ptr %82 to i64
  %84 = load i32, ptr %20, align 4
  %85 = sext i32 %84 to i64
  %86 = add nsw i64 %83, %85
  %87 = inttoptr i64 %86 to ptr
  store ptr %87, ptr %18, align 8
  br label %88

88:                                               ; preds = %75
  %89 = load i32, ptr %12, align 4
  %90 = add i32 %89, -1
  store i32 %90, ptr %12, align 4
  %91 = icmp ugt i32 %90, 0
  br i1 %91, label %41, label %92, !llvm.loop !8

92:                                               ; preds = %88
  br label %93

93:                                               ; preds = %92
  ret void
}